target datalayout = "e-m:e-p270:32:32-p271:32:32-p272:64:64-i64:64-i128:128-f80:128-n8:16:32:64-S128"
target triple = "x86_64-pc-linux-gnu"

%"class.marisa::grimoire::trie::LoudsTrie" = type { %"class.marisa::grimoire::vector::BitVector", %"class.marisa::grimoire::vector::BitVector", %"class.marisa::grimoire::vector::BitVector", %"class.marisa::grimoire::vector::Vector.4", %"class.marisa::grimoire::vector::FlatVector", %"class.marisa::grimoire::trie::Tail", %"class.marisa::scoped_ptr", %"class.marisa::grimoire::vector::Vector.8", i64, i64, %"class.marisa::grimoire::trie::Config", %"class.marisa::grimoire::io::Mapper" }
%"class.marisa::grimoire::vector::BitVector" = type { %"class.marisa::grimoire::vector::Vector", i64, i64, %"class.marisa::grimoire::vector::Vector.0", %"class.marisa::grimoire::vector::Vector.2", %"class.marisa::grimoire::vector::Vector.2" }
%"class.marisa::grimoire::vector::Vector" = type <{ %"class.marisa::scoped_array", ptr, ptr, i64, i64, i8, [7 x i8] }>
%"class.marisa::scoped_array" = type { ptr }
%"class.marisa::grimoire::vector::Vector.0" = type <{ %"class.marisa::scoped_array", ptr, ptr, i64, i64, i8, [7 x i8] }>
%"class.marisa::grimoire::vector::Vector.2" = type <{ %"class.marisa::scoped_array", ptr, ptr, i64, i64, i8, [7 x i8] }>
%"class.marisa::grimoire::vector::Vector.4" = type <{ %"class.marisa::scoped_array", ptr, ptr, i64, i64, i8, [7 x i8] }>
%"class.marisa::grimoire::vector::FlatVector" = type { %"class.marisa::grimoire::vector::Vector", i64, i32, i64 }
%"class.marisa::grimoire::trie::Tail" = type { %"class.marisa::grimoire::vector::Vector.6", %"class.marisa::grimoire::vector::BitVector" }
%"class.marisa::grimoire::vector::Vector.6" = type <{ %"class.marisa::scoped_array", ptr, ptr, i64, i64, i8, [7 x i8] }>
%"class.marisa::scoped_ptr" = type { ptr }
%"class.marisa::grimoire::vector::Vector.8" = type <{ %"class.marisa::scoped_array", ptr, ptr, i64, i64, i8, [7 x i8] }>
%"class.marisa::grimoire::trie::Config" = type <{ i64, i32, i32, i32, [4 x i8] }>
%"class.marisa::grimoire::io::Mapper" = type <{ ptr, ptr, i64, i64, i32, [4 x i8] }>
%"class.marisa::grimoire::trie::Header" = type { i8 }
%"class.marisa::Exception" = type { %"class.std::exception", ptr, i32, i32, ptr }
%"class.std::exception" = type { ptr }

@_ZTIN6marisa9ExceptionE = linkonce_odr constant { ptr, ptr, ptr } { ptr getelementptr inbounds (ptr, ptr @_ZTVN10__cxxabiv120__si_class_type_infoE, i64 2), ptr @_ZTSN6marisa9ExceptionE, ptr @_ZTISt9exception }, comdat, align 8
@.str.11 = private unnamed_addr constant [143 x i8] c"generated/home/dtcxzyw/WorkSpace/Projects/compilers/llvm-opt-benchmark/bench/opencc/OpenCC/deps/marisa-0.2.6/lib/marisa/grimoire/trie/header.h\00", align 1
@.str.12 = private unnamed_addr constant [186 x i8] c"generated/home/dtcxzyw/WorkSpace/Projects/compilers/llvm-opt-benchmark/bench/opencc/OpenCC/deps/marisa-0.2.6/lib/marisa/grimoire/trie/header.h:21: MARISA_FORMAT_ERROR: !test_header(ptr)\00", align 1
@.str.13 = private unnamed_addr constant [141 x i8] c"generated/home/dtcxzyw/WorkSpace/Projects/compilers/llvm-opt-benchmark/bench/opencc/OpenCC/deps/marisa-0.2.6/lib/marisa/grimoire/io/mapper.h\00", align 1
@.str.14 = private unnamed_addr constant [198 x i8] c"generated/home/dtcxzyw/WorkSpace/Projects/compilers/llvm-opt-benchmark/bench/opencc/OpenCC/deps/marisa-0.2.6/lib/marisa/grimoire/io/mapper.h:28: MARISA_NULL_ERROR: (objs == NULL) && (num_objs != 0)\00", align 1
@.str.15 = private unnamed_addr constant [205 x i8] c"generated/home/dtcxzyw/WorkSpace/Projects/compilers/llvm-opt-benchmark/bench/opencc/OpenCC/deps/marisa-0.2.6/lib/marisa/grimoire/io/mapper.h:30: MARISA_SIZE_ERROR: num_objs > (MARISA_SIZE_MAX / sizeof(T))\00", align 1
@_ZZN6marisa8grimoire4trie6Header10get_headerEvE3buf = linkonce_odr constant [16 x i8] c"We love Marisa.\00", comdat, align 16
@_ZTVN6marisa9ExceptionE = linkonce_odr unnamed_addr constant { [5 x ptr] } { [5 x ptr] [ptr null, ptr @_ZTIN6marisa9ExceptionE, ptr @_ZN6marisa9ExceptionD2Ev, ptr @_ZN6marisa9ExceptionD0Ev, ptr @_ZNK6marisa9Exception4whatEv] }, comdat, align 8
@_ZTVSt9exception = external unnamed_addr constant { [5 x ptr] }, align 8
@_ZN6marisa8grimoire4trie9LoudsTrieC1Ev = unnamed_addr alias void (ptr), ptr @_ZN6marisa8grimoire4trie9LoudsTrieC2Ev
@_ZN6marisa8grimoire4trie9LoudsTrieD1Ev = unnamed_addr alias void (ptr), ptr @_ZN6marisa8grimoire4trie9LoudsTrieD2Ev

; Function Attrs: mustprogress nounwind uwtable
define linkonce_odr void @_ZNSt9exceptionC2Ev(ptr noundef nonnull align 8 dereferenceable(8) %0) unnamed_addr #5 comdat align 2 {
  %2 = alloca ptr, align 8
  store ptr %0, ptr %2, align 8
  %3 = load ptr, ptr %2, align 8
  store ptr getelementptr inbounds inrange(-16, 24) ({ [5 x ptr] }, ptr @_ZTVSt9exception, i32 0, i32 0, i32 2), ptr %3, align 8
  ret void
}

; Function Attrs: mustprogress nounwind uwtable
define linkonce_odr noundef ptr @_ZN6marisa8grimoire4trie6Header10get_headerEv() #5 comdat align 2 {
  ret ptr @_ZZN6marisa8grimoire4trie6Header10get_headerEvE3buf
}

; Function Attrs: mustprogress nounwind uwtable
define linkonce_odr void @_ZN6marisa9ExceptionC2EPKci18marisa_error_code_S2_(ptr noundef nonnull align 8 dereferenceable(32) %0, ptr noundef %1, i32 noundef %2, i32 noundef %3, ptr noundef %4) unnamed_addr #5 comdat align 2 {
  %6 = alloca ptr, align 8
  %7 = alloca ptr, align 8
  %8 = alloca i32, align 4
  %9 = alloca i32, align 4
  %10 = alloca ptr, align 8
  store ptr %0, ptr %6, align 8
  store ptr %1, ptr %7, align 8
  store i32 %2, ptr %8, align 4
  store i32 %3, ptr %9, align 4
  store ptr %4, ptr %10, align 8
  %11 = load ptr, ptr %6, align 8
  call void @_ZNSt9exceptionC2Ev(ptr noundef nonnull align 8 dereferenceable(8) %11) #3
  store ptr getelementptr inbounds inrange(-16, 24) ({ [5 x ptr] }, ptr @_ZTVN6marisa9ExceptionE, i32 0, i32 0, i32 2), ptr %11, align 8
  %12 = getelementptr inbounds %"class.marisa::Exception", ptr %11, i32 0, i32 1
  %13 = load ptr, ptr %7, align 8
  store ptr %13, ptr %12, align 8
  %14 = getelementptr inbounds %"class.marisa::Exception", ptr %11, i32 0, i32 2
  %15 = load i32, ptr %8, align 4
  store i32 %15, ptr %14, align 8
  %16 = getelementptr inbounds %"class.marisa::Exception", ptr %11, i32 0, i32 3
  %17 = load i32, ptr %9, align 4
  store i32 %17, ptr %16, align 4
  %18 = getelementptr inbounds %"class.marisa::Exception", ptr %11, i32 0, i32 4
  %19 = load ptr, ptr %10, align 8
  store ptr %19, ptr %18, align 8
  ret void
}

; Function Attrs: mustprogress uwtable
define linkonce_odr noundef zeroext i1 @_ZN6marisa8grimoire4trie6Header11test_headerEPKc(ptr noundef %0) #4 comdat align 2 {
  %2 = alloca i1, align 1
  %3 = alloca ptr, align 8
  %4 = alloca i64, align 8
  store ptr %0, ptr %3, align 8
  store i64 0, ptr %4, align 8
  br label %5

5:                                                ; preds = %22, %1
  %6 = load i64, ptr %4, align 8
  %7 = icmp ult i64 %6, 16
  br i1 %7, label %8, label %25

8:                                                ; preds = %5
  %9 = load ptr, ptr %3, align 8
  %10 = load i64, ptr %4, align 8
  %11 = getelementptr inbounds i8, ptr %9, i64 %10
  %12 = load i8, ptr %11, align 1
  %13 = sext i8 %12 to i32
  %14 = call noundef ptr @_ZN6marisa8grimoire4trie6Header10get_headerEv()
  %15 = load i64, ptr %4, align 8
  %16 = getelementptr inbounds i8, ptr %14, i64 %15
  %17 = load i8, ptr %16, align 1
  %18 = sext i8 %17 to i32
  %19 = icmp ne i32 %13, %18
  br i1 %19, label %20, label %21

20:                                               ; preds = %8
  store i1 false, ptr %2, align 1
  br label %26

21:                                               ; preds = %8
  br label %22

22:                                               ; preds = %21
  %23 = load i64, ptr %4, align 8
  %24 = add i64 %23, 1
  store i64 %24, ptr %4, align 8
  br label %5, !llvm.loop !52

25:                                               ; preds = %5
  store i1 true, ptr %2, align 1
  br label %26

26:                                               ; preds = %25, %20
  %27 = load i1, ptr %2, align 1
  ret i1 %27
}

; Function Attrs: mustprogress uwtable
define linkonce_odr void @_ZN6marisa8grimoire2io6Mapper3mapIcEEvPPKT_m(ptr noundef nonnull align 8 dereferenceable(36) %0, ptr noundef %1, i64 noundef %2) #4 comdat align 2 personality ptr @__gxx_personality_v0 {
  %4 = alloca ptr, align 8
  %5 = alloca ptr, align 8
  %6 = alloca i64, align 8
  %7 = alloca ptr, align 8
  %8 = alloca i1, align 1
  %9 = alloca ptr, align 8
  %10 = alloca i32, align 4
  %11 = alloca ptr, align 8
  %12 = alloca i1, align 1
  store ptr %0, ptr %4, align 8
  store ptr %1, ptr %5, align 8
  store i64 %2, ptr %6, align 8
  %13 = load ptr, ptr %4, align 8
  %14 = load ptr, ptr %5, align 8
  %15 = icmp eq ptr %14, null
  store i1 false, ptr %8, align 1
  br i1 %15, label %16, label %23

16:                                               ; preds = %3
  %17 = load i64, ptr %6, align 8
  %18 = icmp ne i64 %17, 0
  br i1 %18, label %19, label %23

19:                                               ; preds = %16
  %20 = call ptr @__cxa_allocate_exception(i64 32) #3
  store ptr %20, ptr %7, align 8
  store i1 true, ptr %8, align 1
  invoke void @_ZN6marisa9ExceptionC2EPKci18marisa_error_code_S2_(ptr noundef nonnull align 8 dereferenceable(32) %20, ptr noundef @.str.13, i32 noundef 28, i32 noundef 2, ptr noundef @.str.14)
          to label %21 unwind label %35

21:                                               ; preds = %19
  call void @__cxa_throw(ptr %20, ptr @_ZTIN6marisa9ExceptionE, ptr @_ZN6marisa9ExceptionD2Ev) #17
  unreachable

22:                                               ; No predecessors!
  br label %23

23:                                               ; preds = %22, %16, %3
  %24 = load i64, ptr %6, align 8
  %25 = icmp ugt i64 %24, -1
  store i1 false, ptr %12, align 1
  br i1 %25, label %26, label %30

26:                                               ; preds = %23
  %27 = call ptr @__cxa_allocate_exception(i64 32) #3
  store ptr %27, ptr %11, align 8
  store i1 true, ptr %12, align 1
  invoke void @_ZN6marisa9ExceptionC2EPKci18marisa_error_code_S2_(ptr noundef nonnull align 8 dereferenceable(32) %27, ptr noundef @.str.13, i32 noundef 30, i32 noundef 7, ptr noundef @.str.15)
          to label %28 unwind label %43

28:                                               ; preds = %26
  call void @__cxa_throw(ptr %27, ptr @_ZTIN6marisa9ExceptionE, ptr @_ZN6marisa9ExceptionD2Ev) #17
  unreachable

29:                                               ; No predecessors!
  br label %30

30:                                               ; preds = %29, %23
  %31 = load i64, ptr %6, align 8
  %32 = mul i64 1, %31
  %33 = call noundef ptr @_ZN6marisa8grimoire2io6Mapper8map_dataEm(ptr noundef nonnull align 8 dereferenceable(36) %13, i64 noundef %32)
  %34 = load ptr, ptr %5, align 8
  store ptr %33, ptr %34, align 8
  ret void

35:                                               ; preds = %19
  %36 = landingpad { ptr, i32 }
          cleanup
  %37 = extractvalue { ptr, i32 } %36, 0
  store ptr %37, ptr %9, align 8
  %38 = extractvalue { ptr, i32 } %36, 1
  store i32 %38, ptr %10, align 4
  %39 = load i1, ptr %8, align 1
  br i1 %39, label %40, label %42

40:                                               ; preds = %35
  %41 = load ptr, ptr %7, align 8
  call void @__cxa_free_exception(ptr %41) #3
  br label %42

42:                                               ; preds = %40, %35
  br label %51

43:                                               ; preds = %26
  %44 = landingpad { ptr, i32 }
          cleanup
  %45 = extractvalue { ptr, i32 } %44, 0
  store ptr %45, ptr %9, align 8
  %46 = extractvalue { ptr, i32 } %44, 1
  store i32 %46, ptr %10, align 4
  %47 = load i1, ptr %12, align 1
  br i1 %47, label %48, label %50

48:                                               ; preds = %43
  %49 = load ptr, ptr %11, align 8
  call void @__cxa_free_exception(ptr %49) #3
  br label %50

50:                                               ; preds = %48, %43
  br label %51

51:                                               ; preds = %50, %42
  %52 = load ptr, ptr %9, align 8
  %53 = load i32, ptr %10, align 4
  %54 = insertvalue { ptr, i32 } poison, ptr %52, 0
  %55 = insertvalue { ptr, i32 } %54, i32 %53, 1
  resume { ptr, i32 } %55
}

; Function Attrs: mustprogress uwtable
define linkonce_odr void @_ZN6marisa8grimoire4trie6Header3mapERNS0_2io6MapperE(ptr noundef nonnull align 1 dereferenceable(1) %0, ptr noundef nonnull align 8 dereferenceable(36) %1) #4 comdat align 2 personality ptr @__gxx_personality_v0 {
  %3 = alloca ptr, align 8
  %4 = alloca ptr, align 8
  %5 = alloca ptr, align 8
  %6 = alloca ptr, align 8
  %7 = alloca i1, align 1
  %8 = alloca ptr, align 8
  %9 = alloca i32, align 4
  store ptr %0, ptr %3, align 8
  store ptr %1, ptr %4, align 8
  %10 = load ptr, ptr %4, align 8
  call void @_ZN6marisa8grimoire2io6Mapper3mapIcEEvPPKT_m(ptr noundef nonnull align 8 dereferenceable(36) %10, ptr noundef %5, i64 noundef 16)
  %11 = load ptr, ptr %5, align 8
  %12 = call noundef zeroext i1 @_ZN6marisa8grimoire4trie6Header11test_headerEPKc(ptr noundef %11)
  store i1 false, ptr %7, align 1
  br i1 %12, label %17, label %13

13:                                               ; preds = %2
  %14 = call ptr @__cxa_allocate_exception(i64 32) #3
  store ptr %14, ptr %6, align 8
  store i1 true, ptr %7, align 1
  invoke void @_ZN6marisa9ExceptionC2EPKci18marisa_error_code_S2_(ptr noundef nonnull align 8 dereferenceable(32) %14, ptr noundef @.str.11, i32 noundef 21, i32 noundef 10, ptr noundef @.str.12)
          to label %15 unwind label %18

15:                                               ; preds = %13
  call void @__cxa_throw(ptr %14, ptr @_ZTIN6marisa9ExceptionE, ptr @_ZN6marisa9ExceptionD2Ev) #17
  unreachable

16:                                               ; No predecessors!
  br label %17

17:                                               ; preds = %16, %2
  ret void

18:                                               ; preds = %13
  %19 = landingpad { ptr, i32 }
          cleanup
  %20 = extractvalue { ptr, i32 } %19, 0
  store ptr %20, ptr %8, align 8
  %21 = extractvalue { ptr, i32 } %19, 1
  store i32 %21, ptr %9, align 4
  %22 = load i1, ptr %7, align 1
  br i1 %22, label %23, label %25

23:                                               ; preds = %18
  %24 = load ptr, ptr %6, align 8
  call void @__cxa_free_exception(ptr %24) #3
  br label %25

25:                                               ; preds = %23, %18
  br label %26

26:                                               ; preds = %25
  %27 = load ptr, ptr %8, align 8
  %28 = load i32, ptr %9, align 4
  %29 = insertvalue { ptr, i32 } poison, ptr %27, 0
  %30 = insertvalue { ptr, i32 } %29, i32 %28, 1
  resume { ptr, i32 } %30
}

; Function Attrs: mustprogress nounwind uwtable
define linkonce_odr void @_ZN6marisa8grimoire4trie6HeaderC2Ev(ptr noundef nonnull align 1 dereferenceable(1) %0) unnamed_addr #5 comdat align 2 {
  %2 = alloca ptr, align 8
  store ptr %0, ptr %2, align 8
  ret void
}

; Function Attrs: mustprogress uwtable
define void @_ZN6marisa8grimoire4trie9LoudsTrie3mapERNS0_2io6MapperE(ptr noundef nonnull align 8 dereferenceable(1136) %0, ptr noundef nonnull align 8 dereferenceable(36) %1) #4 align 2 personality ptr @__gxx_personality_v0 {
  %3 = alloca ptr, align 8
  %4 = alloca ptr, align 8
  %5 = alloca %"class.marisa::grimoire::trie::Header", align 1
  %6 = alloca %"class.marisa::grimoire::trie::LoudsTrie", align 8
  %7 = alloca ptr, align 8
  %8 = alloca i32, align 4
  store ptr %0, ptr %3, align 8
  store ptr %1, ptr %4, align 8
  %9 = load ptr, ptr %3, align 8
  call void @_ZN6marisa8grimoire4trie6HeaderC2Ev(ptr noundef nonnull align 1 dereferenceable(1) %5)
  %10 = load ptr, ptr %4, align 8
  call void @_ZN6marisa8grimoire4trie6Header3mapERNS0_2io6MapperE(ptr noundef nonnull align 1 dereferenceable(1) %5, ptr noundef nonnull align 8 dereferenceable(36) %10)
  call void @_ZN6marisa8grimoire4trie9LoudsTrieC1Ev(ptr noundef nonnull align 8 dereferenceable(1136) %6)
  %11 = load ptr, ptr %4, align 8
  invoke void @_ZN6marisa8grimoire4trie9LoudsTrie4map_ERNS0_2io6MapperE(ptr noundef nonnull align 8 dereferenceable(1136) %6, ptr noundef nonnull align 8 dereferenceable(36) %11)
          to label %12 unwind label %17

12:                                               ; preds = %2
  %13 = getelementptr inbounds %"class.marisa::grimoire::trie::LoudsTrie", ptr %6, i32 0, i32 11
  %14 = load ptr, ptr %4, align 8
  invoke void @_ZN6marisa8grimoire2io6Mapper4swapERS2_(ptr noundef nonnull align 8 dereferenceable(36) %13, ptr noundef nonnull align 8 dereferenceable(36) %14)
          to label %15 unwind label %17

15:                                               ; preds = %12
  invoke void @_ZN6marisa8grimoire4trie9LoudsTrie4swapERS2_(ptr noundef nonnull align 8 dereferenceable(1136) %9, ptr noundef nonnull align 8 dereferenceable(1136) %6)
          to label %16 unwind label %17

16:                                               ; preds = %15
  call void @_ZN6marisa8grimoire4trie9LoudsTrieD1Ev(ptr noundef nonnull align 8 dereferenceable(1136) %6) #3
  ret void

17:                                               ; preds = %15, %12, %2
  %18 = landingpad { ptr, i32 }
          cleanup
  %19 = extractvalue { ptr, i32 } %18, 0
  store ptr %19, ptr %7, align 8
  %20 = extractvalue { ptr, i32 } %18, 1
  store i32 %20, ptr %8, align 4
  call void @_ZN6marisa8grimoire4trie9LoudsTrieD1Ev(ptr noundef nonnull align 8 dereferenceable(1136) %6) #3
  br label %21

21:                                               ; preds = %17
  %22 = load ptr, ptr %7, align 8
  %23 = load i32, ptr %8, align 4
  %24 = insertvalue { ptr, i32 } poison, ptr %22, 0
  %25 = insertvalue { ptr, i32 } %24, i32 %23, 1
  resume { ptr, i32 } %25
}