; Function Attrs: mustprogress uwtable
define void @_ZN6marisa8grimoire4trie9LoudsTrie3mapERNS0_2io6MapperE(ptr noundef nonnull align 8 dereferenceable(1136) %0, ptr noundef nonnull align 8 dereferenceable(36) %1) local_unnamed_addr #3 align 2 personality ptr @__gxx_personality_v0 {
  %3 = alloca %"class.marisa::grimoire::trie::LoudsTrie", align 8
  %4 = tail call noundef ptr @_ZN6marisa8grimoire2io6Mapper8map_dataEm(ptr noundef nonnull align 8 dereferenceable(36) %1, i64 noundef 16)
  %5 = load i8, ptr %4, align 1
  %.not.i1.i = icmp eq i8 %5, 87
  br i1 %.not.i1.i, label %.lr.ph.i, label %.critedge.i

.lr.ph.i:                                         ; preds = %2, %7
  %.06.i2.i = phi i64 [ %6, %7 ], [ 0, %2 ]
  %6 = add nuw nsw i64 %.06.i2.i, 1
  %exitcond.i.i = icmp eq i64 %6, 16
  br i1 %exitcond.i.i, label %_ZN6marisa8grimoire4trie6Header3mapERNS0_2io6MapperE.exit, label %7, !llvm.loop !15

7:                                                ; preds = %.lr.ph.i
  %8 = getelementptr inbounds i8, ptr %4, i64 %6
  %9 = load i8, ptr %8, align 1
  %10 = getelementptr inbounds i8, ptr @_ZZN6marisa8grimoire4trie6Header10get_headerEvE3buf, i64 %6
  %11 = load i8, ptr %10, align 1
  %.not.i.i = icmp eq i8 %9, %11
  br i1 %.not.i.i, label %.lr.ph.i, label %_ZN6marisa8grimoire4trie6Header11test_headerEPKc.exit.i, !llvm.loop !15

_ZN6marisa8grimoire4trie6Header11test_headerEPKc.exit.i: ; preds = %7
  %12 = icmp ugt i64 %.06.i2.i, 14
  br i1 %12, label %_ZN6marisa8grimoire4trie6Header3mapERNS0_2io6MapperE.exit, label %.critedge.i

.critedge.i:                                      ; preds = %_ZN6marisa8grimoire4trie6Header11test_headerEPKc.exit.i, %2
  %13 = tail call ptr @__cxa_allocate_exception(i64 32) #20
  store ptr getelementptr inbounds inrange(-16, 24) ({ [5 x ptr] }, ptr @_ZTVN6marisa9ExceptionE, i64 0, i32 0, i64 2), ptr %13, align 8
  %14 = getelementptr inbounds i8, ptr %13, i64 8
  store ptr @.str.11, ptr %14, align 8
  %15 = getelementptr inbounds i8, ptr %13, i64 16
  store i32 21, ptr %15, align 8
  %16 = getelementptr inbounds i8, ptr %13, i64 20
  store i32 10, ptr %16, align 4
  %17 = getelementptr inbounds i8, ptr %13, i64 24
  store ptr @.str.12, ptr %17, align 8
  tail call void @__cxa_throw(ptr nonnull %13, ptr nonnull @_ZTIN6marisa9ExceptionE, ptr nonnull @_ZN6marisa9ExceptionD2Ev) #22
  unreachable

_ZN6marisa8grimoire4trie6Header3mapERNS0_2io6MapperE.exit: ; preds = %.lr.ph.i, %_ZN6marisa8grimoire4trie6Header11test_headerEPKc.exit.i
  call void @_ZN6marisa8grimoire4trie9LoudsTrieC1Ev(ptr noundef nonnull align 8 dereferenceable(1136) %3)
  invoke void @_ZN6marisa8grimoire4trie9LoudsTrie4map_ERNS0_2io6MapperE(ptr noundef nonnull align 8 dereferenceable(1136) %3, ptr noundef nonnull align 8 dereferenceable(36) %1)
          to label %18 unwind label %22

18:                                               ; preds = %_ZN6marisa8grimoire4trie6Header3mapERNS0_2io6MapperE.exit
  %19 = getelementptr inbounds i8, ptr %3, i64 1096
  invoke void @_ZN6marisa8grimoire2io6Mapper4swapERS2_(ptr noundef nonnull align 8 dereferenceable(36) %19, ptr noundef nonnull align 8 dereferenceable(36) %1)
          to label %20 unwind label %22

20:                                               ; preds = %18
  invoke void @_ZN6marisa8grimoire4trie9LoudsTrie4swapERS2_(ptr noundef nonnull align 8 dereferenceable(1136) %0, ptr noundef nonnull align 8 dereferenceable(1136) %3)
          to label %21 unwind label %22

21:                                               ; preds = %20
  call void @_ZN6marisa8grimoire4trie9LoudsTrieD1Ev(ptr noundef nonnull align 8 dereferenceable(1136) %3) #20
  ret void

22:                                               ; preds = %20, %18, %_ZN6marisa8grimoire4trie6Header3mapERNS0_2io6MapperE.exit
  %23 = landingpad { ptr, i32 }
          cleanup
  call void @_ZN6marisa8grimoire4trie9LoudsTrieD1Ev(ptr noundef nonnull align 8 dereferenceable(1136) %3) #20
  resume { ptr, i32 } %23
}